; Function Attrs: mustprogress uwtable
define noundef zeroext i1 @_ZN5Ipopt16FilterLSAcceptor11ArmijoHoldsEd(ptr nocapture noundef nonnull readonly align 8 dereferenceable(304) %0, double noundef %1) local_unnamed_addr #3 align 2 {
  %3 = getelementptr inbounds i8, ptr %0, i64 40
  %4 = load ptr, ptr %3, align 8
  %5 = load ptr, ptr %4, align 8
  %6 = getelementptr inbounds i8, ptr %5, i64 56
  %7 = load ptr, ptr %6, align 8
  %8 = tail call noundef double %7(ptr noundef nonnull align 8 dereferenceable(2185) %4)
  %9 = getelementptr inbounds i8, ptr %0, i64 208
  %10 = load double, ptr %9, align 8
  %11 = fsub double %8, %10
  %12 = getelementptr inbounds i8, ptr %0, i64 88
  %13 = load double, ptr %12, align 8
  %14 = fmul double %13, %1
  %15 = getelementptr inbounds i8, ptr %0, i64 216
  %16 = load double, ptr %15, align 8
  %17 = fmul double %14, %16
  %18 = tail call noundef zeroext i1 @_ZN5Ipopt10Compare_leEddd(double noundef %11, double noundef %17, double noundef %10)
  ret i1 %18
}